; Function Attrs: mustprogress uwtable
define hidden void @_ZN16fpa2bv_converter6mk_negEP9func_decljPKP4exprR7obj_refIS2_11ast_managerE(ptr noundef nonnull align 8 dereferenceable(496) %0, ptr noundef readonly captures(none) %1, i32 noundef %2, ptr noundef readonly captures(none) %3, ptr noundef nonnull align 8 dereferenceable(16) %4) local_unnamed_addr #3 align 2 personality ptr @__gxx_personality_v0 {
  %6 = alloca %class.obj_ref, align 8
  call void @llvm.lifetime.start.p0(i64 16, ptr nonnull %6) #23
  %7 = getelementptr inbounds nuw i8, ptr %0, i64 8
  %8 = load ptr, ptr %7, align 8, !tbaa !130
  %9 = getelementptr inbounds nuw i8, ptr %6, i64 8
  store ptr %8, ptr %9, align 8, !tbaa !6
  %10 = load ptr, ptr %3, align 8, !tbaa !122
  %.not.i = icmp eq ptr %10, null
  br i1 %.not.i, label %14, label %_ZN11ast_manager7inc_refEP3ast.exit.i

_ZN11ast_manager7inc_refEP3ast.exit.i:            ; preds = %5
  %11 = getelementptr inbounds nuw i8, ptr %10, i64 8
  %12 = load i32, ptr %11, align 4, !tbaa !125
  %13 = add i32 %12, 1
  store i32 %13, ptr %11, align 4, !tbaa !125
  br label %14

14:                                               ; preds = %_ZN11ast_manager7inc_refEP3ast.exit.i, %5
  store ptr %10, ptr %6, align 8, !tbaa !164
  invoke void @_ZN16fpa2bv_converter6mk_negEP4sortR7obj_refI4expr11ast_managerES6_(ptr noundef nonnull align 8 dereferenceable(496) %0, ptr poison, ptr noundef nonnull align 8 dereferenceable(16) %6, ptr noundef nonnull align 8 dereferenceable(16) %4)
          to label %15 unwind label %25

15:                                               ; preds = %14
  br i1 %.not.i, label %_ZN7obj_refI4expr11ast_managerED2Ev.exit, label %16

16:                                               ; preds = %15
  %17 = getelementptr inbounds nuw i8, ptr %10, i64 8
  %18 = load i32, ptr %17, align 4, !tbaa !125
  %19 = add i32 %18, -1
  store i32 %19, ptr %17, align 4, !tbaa !125
  %20 = icmp eq i32 %19, 0
  br i1 %20, label %21, label %_ZN7obj_refI4expr11ast_managerED2Ev.exit

21:                                               ; preds = %16
  invoke void @_ZN11ast_manager11delete_nodeEP3ast(ptr noundef nonnull align 8 dereferenceable(976) %8, ptr noundef nonnull %10)
          to label %_ZN7obj_refI4expr11ast_managerED2Ev.exit unwind label %22

22:                                               ; preds = %21
  %23 = landingpad { ptr, i32 }
          catch ptr null
  %24 = extractvalue { ptr, i32 } %23, 0
  tail call void @__clang_call_terminate(ptr %24) #24
  unreachable

_ZN7obj_refI4expr11ast_managerED2Ev.exit:         ; preds = %15, %16, %21
  call void @llvm.lifetime.end.p0(i64 16, ptr nonnull %6) #23
  ret void

25:                                               ; preds = %14
  %26 = landingpad { ptr, i32 }
          cleanup
  call void @_ZN7obj_refI4expr11ast_managerED2Ev(ptr noundef nonnull align 8 dereferenceable(16) %6) #23
  call void @llvm.lifetime.end.p0(i64 16, ptr nonnull %6) #23
  resume { ptr, i32 } %26
}